; Function Attrs: mustprogress nounwind uwtable
define hidden void @_ZN2cv6base6412Base64WriterD2Ev(ptr noundef nonnull readonly align 8 dereferenceable(40) %0) unnamed_addr #4 align 2 personality ptr @__gxx_personality_v0 {
  %2 = load ptr, ptr %0, align 8, !tbaa !40
  %3 = icmp eq ptr %2, null
  br i1 %3, label %21, label %4

4:                                                ; preds = %1
  %5 = getelementptr inbounds nuw i8, ptr %2, i64 72
  %6 = load ptr, ptr %5, align 8, !tbaa !123
  %7 = getelementptr inbounds nuw i8, ptr %2, i64 64
  %8 = load ptr, ptr %7, align 8, !tbaa !121
  %.not.i = icmp eq ptr %6, %8
  br i1 %.not.i, label %11, label %9

9:                                                ; preds = %4
  %10 = invoke noundef zeroext i1 @_ZN2cv6base6420Base64ContextEmitter5flushEv(ptr noundef nonnull align 8 dereferenceable(88) %2)
          to label %11 unwind label %18

11:                                               ; preds = %9, %4
  %12 = getelementptr inbounds nuw i8, ptr %2, i64 40
  %13 = load ptr, ptr %12, align 8, !tbaa !118
  %.not.i.i.i.i = icmp eq ptr %13, null
  br i1 %.not.i.i.i.i, label %_ZNSt6vectorIhSaIhEED2Ev.exit.i, label %14

14:                                               ; preds = %11
  tail call void @_ZdlPv(ptr noundef nonnull %13) #20
  br label %_ZNSt6vectorIhSaIhEED2Ev.exit.i

_ZNSt6vectorIhSaIhEED2Ev.exit.i:                  ; preds = %14, %11
  %15 = getelementptr inbounds nuw i8, ptr %2, i64 16
  %16 = load ptr, ptr %15, align 8, !tbaa !118
  %.not.i.i.i1.i = icmp eq ptr %16, null
  br i1 %.not.i.i.i1.i, label %_ZN2cv6base6420Base64ContextEmitterD2Ev.exit, label %17

17:                                               ; preds = %_ZNSt6vectorIhSaIhEED2Ev.exit.i
  tail call void @_ZdlPv(ptr noundef nonnull %16) #20
  br label %_ZN2cv6base6420Base64ContextEmitterD2Ev.exit

18:                                               ; preds = %9
  %19 = landingpad { ptr, i32 }
          catch ptr null
  %20 = extractvalue { ptr, i32 } %19, 0
  tail call void @__clang_call_terminate(ptr %20) #23
  unreachable

_ZN2cv6base6420Base64ContextEmitterD2Ev.exit:     ; preds = %_ZNSt6vectorIhSaIhEED2Ev.exit.i, %17
  tail call void @_ZdlPv(ptr noundef nonnull %2) #20
  br label %21

21:                                               ; preds = %_ZN2cv6base6420Base64ContextEmitterD2Ev.exit, %1
  %22 = getelementptr inbounds nuw i8, ptr %0, i64 8
  %23 = load ptr, ptr %22, align 8, !tbaa !36
  %24 = getelementptr inbounds nuw i8, ptr %0, i64 24
  %25 = icmp eq ptr %23, %24
  br i1 %25, label %_ZNKSt7__cxx1112basic_stringIcSt11char_traitsIcESaIcEE11_M_is_localEv.exit.thread.i.i, label %_ZNKSt7__cxx1112basic_stringIcSt11char_traitsIcESaIcEE11_M_is_localEv.exit.i.i

_ZNKSt7__cxx1112basic_stringIcSt11char_traitsIcESaIcEE11_M_is_localEv.exit.thread.i.i: ; preds = %21
  %26 = getelementptr inbounds nuw i8, ptr %0, i64 16
  %27 = load i64, ptr %26, align 8, !tbaa !31
  %28 = icmp ult i64 %27, 16
  tail call void @llvm.assume(i1 %28)
  br label %_ZNSt7__cxx1112basic_stringIcSt11char_traitsIcESaIcEED2Ev.exit

_ZNKSt7__cxx1112basic_stringIcSt11char_traitsIcESaIcEE11_M_is_localEv.exit.i.i: ; preds = %21
  tail call void @_ZdlPv(ptr noundef %23) #20
  br label %_ZNSt7__cxx1112basic_stringIcSt11char_traitsIcESaIcEED2Ev.exit

_ZNSt7__cxx1112basic_stringIcSt11char_traitsIcESaIcEED2Ev.exit: ; preds = %_ZNKSt7__cxx1112basic_stringIcSt11char_traitsIcESaIcEE11_M_is_localEv.exit.thread.i.i, %_ZNKSt7__cxx1112basic_stringIcSt11char_traitsIcESaIcEE11_M_is_localEv.exit.i.i
  ret void
}